target datalayout = "e-m:e-p270:32:32-p271:32:32-p272:64:64-i64:64-i128:128-f80:128-n8:16:32:64-S128"
target triple = "x86_64-pc-linux-gnu"

%"struct.std::_Rb_tree_key_compare" = type { %"struct.std::less" }
%"struct.std::less" = type { i8 }
%"struct.std::_Rb_tree_header" = type { %"struct.std::_Rb_tree_node_base", i64 }
%"struct.std::_Rb_tree_node_base" = type { i32, ptr, ptr, ptr }
%"struct.pkpy::Type" = type { i16 }
%"struct.pkpy::StrName" = type { i16 }
%class.anon.325 = type { i8 }
%"class.pkpy::VM" = type <{ ptr, ptr, %"struct.pkpy::ManagedHeap", %"struct.pkpy::ValueStack", %"struct.pkpy::CallStack", %"class.std::vector.3", %"struct.pkpy::NameDictImpl", %"class.std::map.8", %struct.anon, ptr, ptr, ptr, ptr, ptr, ptr, ptr, ptr, %"class.std::map.21", %"class.std::set", %"struct.pkpy::ImportContext", ptr, ptr, ptr, %"class.std::map.45", %"class.std::map.50", %"class.std::shared_ptr", ptr, ptr, ptr, ptr, i8, [7 x i8] }>
%"struct.pkpy::ManagedHeap" = type <{ %"class.std::vector", %"class.std::vector", ptr, ptr, ptr, i32, i32, i32, [4 x i8] }>
%"class.std::vector" = type { %"struct.std::_Vector_base" }
%"struct.std::_Vector_base" = type { %"struct.std::_Vector_base<pkpy::PyObject *, std::allocator<pkpy::PyObject *>>::_Vector_impl" }
%"struct.std::_Vector_base<pkpy::PyObject *, std::allocator<pkpy::PyObject *>>::_Vector_impl" = type { %"struct.std::_Vector_base<pkpy::PyObject *, std::allocator<pkpy::PyObject *>>::_Vector_impl_data" }
%"struct.std::_Vector_base<pkpy::PyObject *, std::allocator<pkpy::PyObject *>>::_Vector_impl_data" = type { ptr, ptr, ptr }
%"struct.pkpy::ValueStack" = type { [33024 x ptr], ptr, ptr }
%"struct.pkpy::CallStack" = type <{ ptr, i32, [4 x i8] }>
%"class.std::vector.3" = type { %"struct.std::_Vector_base.4" }
%"struct.std::_Vector_base.4" = type { %"struct.std::_Vector_base<pkpy::PyTypeInfo, std::allocator<pkpy::PyTypeInfo>>::_Vector_impl" }
%"struct.std::_Vector_base<pkpy::PyTypeInfo, std::allocator<pkpy::PyTypeInfo>>::_Vector_impl" = type { %"struct.std::_Vector_base<pkpy::PyTypeInfo, std::allocator<pkpy::PyTypeInfo>>::_Vector_impl_data" }
%"struct.std::_Vector_base<pkpy::PyTypeInfo, std::allocator<pkpy::PyTypeInfo>>::_Vector_impl_data" = type { ptr, ptr, ptr }
%"struct.pkpy::NameDictImpl" = type { %union.anon }
%union.anon = type { %"struct.pkpy::SmallNameDict" }
%"struct.pkpy::SmallNameDict" = type { i8, i16, [8 x %"struct.pkpy::StrName"], [8 x ptr] }
%"class.std::map.8" = type { %"class.std::_Rb_tree.9" }
%"class.std::_Rb_tree.9" = type { %"struct.std::_Rb_tree<pkpy::StrName, std::pair<const pkpy::StrName, pkpy::Str>, std::_Select1st<std::pair<const pkpy::StrName, pkpy::Str>>, std::less<pkpy::StrName>>::_Rb_tree_impl" }
%"struct.std::_Rb_tree<pkpy::StrName, std::pair<const pkpy::StrName, pkpy::Str>, std::_Select1st<std::pair<const pkpy::StrName, pkpy::Str>>, std::less<pkpy::StrName>>::_Rb_tree_impl" = type { %"struct.std::_Rb_tree_key_compare.13", %"struct.std::_Rb_tree_header" }
%"struct.std::_Rb_tree_key_compare.13" = type { %"struct.std::less.14" }
%"struct.std::less.14" = type { i8 }
%struct.anon = type { ptr, %"class.pkpy::stack_no_copy" }
%"class.pkpy::stack_no_copy" = type { %"class.pkpy::stack" }
%"class.pkpy::stack" = type { %"class.std::vector.16" }
%"class.std::vector.16" = type { %"struct.std::_Vector_base.17" }
%"struct.std::_Vector_base.17" = type { %"struct.std::_Vector_base<pkpy::ArgsView, std::allocator<pkpy::ArgsView>>::_Vector_impl" }
%"struct.std::_Vector_base<pkpy::ArgsView, std::allocator<pkpy::ArgsView>>::_Vector_impl" = type { %"struct.std::_Vector_base<pkpy::ArgsView, std::allocator<pkpy::ArgsView>>::_Vector_impl_data" }
%"struct.std::_Vector_base<pkpy::ArgsView, std::allocator<pkpy::ArgsView>>::_Vector_impl_data" = type { ptr, ptr, ptr }
%"class.std::map.21" = type { %"class.std::_Rb_tree.22" }
%"class.std::_Rb_tree.22" = type { %"struct.std::_Rb_tree<const std::type_index, std::pair<const std::type_index, pkpy::Type>, std::_Select1st<std::pair<const std::type_index, pkpy::Type>>, std::less<const std::type_index>>::_Rb_tree_impl" }
%"struct.std::_Rb_tree<const std::type_index, std::pair<const std::type_index, pkpy::Type>, std::_Select1st<std::pair<const std::type_index, pkpy::Type>>, std::less<const std::type_index>>::_Rb_tree_impl" = type { %"struct.std::_Rb_tree_key_compare.26", %"struct.std::_Rb_tree_header" }
%"struct.std::_Rb_tree_key_compare.26" = type { %"struct.std::less.27" }
%"struct.std::less.27" = type { i8 }
%"class.std::set" = type { %"class.std::_Rb_tree.29" }
%"class.std::_Rb_tree.29" = type { %"struct.std::_Rb_tree<pkpy::PyObject *, pkpy::PyObject *, std::_Identity<pkpy::PyObject *>, std::less<pkpy::PyObject *>>::_Rb_tree_impl" }
%"struct.std::_Rb_tree<pkpy::PyObject *, pkpy::PyObject *, std::_Identity<pkpy::PyObject *>, std::less<pkpy::PyObject *>>::_Rb_tree_impl" = type { %"struct.std::_Rb_tree_key_compare.33", %"struct.std::_Rb_tree_header" }
%"struct.std::_Rb_tree_key_compare.33" = type { %"struct.std::less.34" }
%"struct.std::less.34" = type { i8 }
%"struct.pkpy::ImportContext" = type { %"class.std::vector.36", %"class.std::vector.41" }
%"class.std::vector.36" = type { %"struct.std::_Vector_base.37" }
%"struct.std::_Vector_base.37" = type { %"struct.std::_Vector_base<pkpy::Str, std::allocator<pkpy::Str>>::_Vector_impl" }
%"struct.std::_Vector_base<pkpy::Str, std::allocator<pkpy::Str>>::_Vector_impl" = type { %"struct.std::_Vector_base<pkpy::Str, std::allocator<pkpy::Str>>::_Vector_impl_data" }
%"struct.std::_Vector_base<pkpy::Str, std::allocator<pkpy::Str>>::_Vector_impl_data" = type { ptr, ptr, ptr }
%"class.std::vector.41" = type { %"struct.std::_Bvector_base" }
%"struct.std::_Bvector_base" = type { %"struct.std::_Bvector_base<std::allocator<bool>>::_Bvector_impl" }
%"struct.std::_Bvector_base<std::allocator<bool>>::_Bvector_impl" = type { %"struct.std::_Bvector_base<std::allocator<bool>>::_Bvector_impl_data" }
%"struct.std::_Bvector_base<std::allocator<bool>>::_Bvector_impl_data" = type { %"struct.std::_Bit_iterator", %"struct.std::_Bit_iterator", ptr }
%"struct.std::_Bit_iterator" = type { %"struct.std::_Bit_iterator_base.base", [4 x i8] }
%"struct.std::_Bit_iterator_base.base" = type <{ ptr, i32 }>
%"class.std::map.45" = type { %"class.std::_Rb_tree.46" }
%"class.std::_Rb_tree.46" = type { %"struct.std::_Rb_tree<std::basic_string_view<char>, std::pair<const std::basic_string_view<char>, std::shared_ptr<pkpy::CodeObject>>, std::_Select1st<std::pair<const std::basic_string_view<char>, std::shared_ptr<pkpy::CodeObject>>>, std::less<std::basic_string_view<char>>>::_Rb_tree_impl" }
%"struct.std::_Rb_tree<std::basic_string_view<char>, std::pair<const std::basic_string_view<char>, std::shared_ptr<pkpy::CodeObject>>, std::_Select1st<std::pair<const std::basic_string_view<char>, std::shared_ptr<pkpy::CodeObject>>>, std::less<std::basic_string_view<char>>>::_Rb_tree_impl" = type { %"struct.std::_Rb_tree_key_compare", %"struct.std::_Rb_tree_header" }
%"class.std::map.50" = type { %"class.std::_Rb_tree.51" }
%"class.std::_Rb_tree.51" = type { %"struct.std::_Rb_tree<std::basic_string_view<char>, std::pair<const std::basic_string_view<char>, pkpy::PyObject *>, std::_Select1st<std::pair<const std::basic_string_view<char>, pkpy::PyObject *>>, std::less<std::basic_string_view<char>>>::_Rb_tree_impl" }
%"struct.std::_Rb_tree<std::basic_string_view<char>, std::pair<const std::basic_string_view<char>, pkpy::PyObject *>, std::_Select1st<std::pair<const std::basic_string_view<char>, pkpy::PyObject *>>, std::less<std::basic_string_view<char>>>::_Rb_tree_impl" = type { %"struct.std::_Rb_tree_key_compare", %"struct.std::_Rb_tree_header" }
%"class.std::shared_ptr" = type { %"class.std::__shared_ptr" }
%"class.std::__shared_ptr" = type { ptr, %"class.std::__shared_count" }
%"class.std::__shared_count" = type { ptr }
%"struct.pkpy::PyObject" = type { ptr, i8, i8, %"struct.pkpy::Type", ptr }
%"struct.pkpy::Tuple" = type <{ ptr, [3 x ptr], i32, [4 x i8] }>
%"struct.pkpy::Py_.607" = type { %"struct.pkpy::PyObject", %"struct.pkpy::Tuple" }

@_ZN4pkpy2VM8tp_tupleE = linkonce_odr constant %"struct.pkpy::Type" { i16 7 }, comdat, align 2
@__const._ZN4pkpy18_py_cast__internalIRNS_5TupleELb0EEET_PNS_2VMEPNS_8PyObjectE.const_type = private unnamed_addr constant %"struct.pkpy::Type" { i16 7 }, align 2

; Function Attrs: mustprogress nounwind uwtable
define linkonce_odr noundef nonnull align 8 dereferenceable(36) ptr @_ZN4pkpy18_py_cast__internalIRNS_5TupleELb0EEET_PNS_2VMEPNS_8PyObjectE(ptr noundef %0, ptr noundef %1) #5 comdat {
  %3 = alloca ptr, align 8
  %4 = alloca ptr, align 8
  %5 = alloca %"struct.pkpy::Type", align 2
  store ptr %0, ptr %3, align 8
  store ptr %1, ptr %4, align 8
  call void @llvm.memcpy.p0.p0.i64(ptr align 2 %5, ptr align 2 @__const._ZN4pkpy18_py_cast__internalIRNS_5TupleELb0EEET_PNS_2VMEPNS_8PyObjectE.const_type, i64 2, i1 false)
  %6 = load ptr, ptr %4, align 8
  %7 = getelementptr inbounds %"struct.pkpy::Py_.607", ptr %6, i32 0, i32 1
  ret ptr %7
}

; Function Attrs: mustprogress nounwind uwtable
define linkonce_odr noundef zeroext i1 @_ZNK4pkpy4TypeeqES0_(ptr noundef nonnull align 2 dereferenceable(2) %0, i16 %1) #5 comdat align 2 {
  %3 = alloca %"struct.pkpy::Type", align 2
  %4 = alloca ptr, align 8
  %5 = getelementptr inbounds %"struct.pkpy::Type", ptr %3, i32 0, i32 0
  store i16 %1, ptr %5, align 2
  store ptr %0, ptr %4, align 8
  %6 = load ptr, ptr %4, align 8
  %7 = getelementptr inbounds %"struct.pkpy::Type", ptr %6, i32 0, i32 0
  %8 = load i16, ptr %7, align 2
  %9 = sext i16 %8 to i32
  %10 = getelementptr inbounds %"struct.pkpy::Type", ptr %3, i32 0, i32 0
  %11 = load i16, ptr %10, align 2
  %12 = sext i16 %11 to i32
  %13 = icmp eq i32 %9, %12
  ret i1 %13
}

; Function Attrs: mustprogress nounwind uwtable
define linkonce_odr noundef zeroext i1 @_ZN4pkpy12is_small_intEPNS_8PyObjectE(ptr noundef %0) #5 comdat {
  %2 = alloca ptr, align 8
  store ptr %0, ptr %2, align 8
  %3 = load ptr, ptr %2, align 8
  %4 = ptrtoint ptr %3 to i64
  %5 = and i64 %4, 3
  %6 = icmp eq i64 %5, 2
  ret i1 %6
}

; Function Attrs: mustprogress nounwind uwtable
define linkonce_odr noundef ptr @_ZN4pkpy6py_varIbEEPNS_8PyObjectEPNS_2VMEOT_(ptr noundef %0, ptr noundef nonnull align 1 dereferenceable(1) %1) #5 comdat {
  %3 = alloca ptr, align 8
  %4 = alloca ptr, align 8
  store ptr %0, ptr %3, align 8
  store ptr %1, ptr %4, align 8
  %5 = load ptr, ptr %4, align 8
  %6 = load i8, ptr %5, align 1
  %7 = trunc i8 %6 to i1
  br i1 %7, label %8, label %12

8:                                                ; preds = %2
  %9 = load ptr, ptr %3, align 8
  %10 = getelementptr inbounds %"class.pkpy::VM", ptr %9, i32 0, i32 10
  %11 = load ptr, ptr %10, align 8
  br label %16

12:                                               ; preds = %2
  %13 = load ptr, ptr %3, align 8
  %14 = getelementptr inbounds %"class.pkpy::VM", ptr %13, i32 0, i32 11
  %15 = load ptr, ptr %14, align 8
  br label %16

16:                                               ; preds = %12, %8
  %17 = phi ptr [ %11, %8 ], [ %15, %12 ]
  ret ptr %17
}

; Function Attrs: mustprogress nounwind uwtable
define linkonce_odr noundef nonnull align 8 dereferenceable(8) ptr @_ZN4pkpy5TupleixEi(ptr noundef nonnull align 8 dereferenceable(36) %0, i32 noundef %1) #5 comdat align 2 {
  %3 = alloca ptr, align 8
  %4 = alloca i32, align 4
  store ptr %0, ptr %3, align 8
  store i32 %1, ptr %4, align 4
  %5 = load ptr, ptr %3, align 8
  %6 = getelementptr inbounds %"struct.pkpy::Tuple", ptr %5, i32 0, i32 0
  %7 = load ptr, ptr %6, align 8
  %8 = load i32, ptr %4, align 4
  %9 = sext i32 %8 to i64
  %10 = getelementptr inbounds ptr, ptr %7, i64 %9
  ret ptr %10
}

; Function Attrs: mustprogress nounwind uwtable
define linkonce_odr noundef i32 @_ZNK4pkpy5Tuple4sizeEv(ptr noundef nonnull align 8 dereferenceable(36) %0) #5 comdat align 2 {
  %2 = alloca ptr, align 8
  store ptr %0, ptr %2, align 8
  %3 = load ptr, ptr %2, align 8
  %4 = getelementptr inbounds %"struct.pkpy::Tuple", ptr %3, i32 0, i32 2
  %5 = load i32, ptr %4, align 8
  ret i32 %5
}

; Function Attrs: mustprogress uwtable
define linkonce_odr noundef nonnull align 8 dereferenceable(36) ptr @_ZN4pkpy8_py_castIRNS_5TupleEEET_PNS_2VMEPNS_8PyObjectE(ptr noundef %0, ptr noundef %1) #4 comdat {
  %3 = alloca ptr, align 8
  %4 = alloca ptr, align 8
  store ptr %0, ptr %3, align 8
  store ptr %1, ptr %4, align 8
  %5 = load ptr, ptr %3, align 8
  %6 = load ptr, ptr %4, align 8
  %7 = call noundef nonnull align 8 dereferenceable(36) ptr @_ZN4pkpy18_py_cast__internalIRNS_5TupleELb0EEET_PNS_2VMEPNS_8PyObjectE(ptr noundef %5, ptr noundef %6)
  ret ptr %7
}

; Function Attrs: mustprogress uwtable
define linkonce_odr noundef zeroext i1 @_ZN4pkpy7is_typeEPNS_8PyObjectENS_4TypeE(ptr noundef %0, i16 %1) #4 comdat {
  %3 = alloca %"struct.pkpy::Type", align 2
  %4 = alloca ptr, align 8
  %5 = alloca %"struct.pkpy::Type", align 2
  %6 = getelementptr inbounds %"struct.pkpy::Type", ptr %3, i32 0, i32 0
  store i16 %1, ptr %6, align 2
  store ptr %0, ptr %4, align 8
  %7 = load ptr, ptr %4, align 8
  %8 = call noundef zeroext i1 @_ZN4pkpy12is_small_intEPNS_8PyObjectE(ptr noundef %7) #3
  br i1 %8, label %9, label %14

9:                                                ; preds = %2
  %10 = getelementptr inbounds %"struct.pkpy::Type", ptr %3, i32 0, i32 0
  %11 = load i16, ptr %10, align 2
  %12 = sext i16 %11 to i32
  %13 = icmp eq i32 %12, 2
  br label %20

14:                                               ; preds = %2
  %15 = load ptr, ptr %4, align 8
  %16 = getelementptr inbounds %"struct.pkpy::PyObject", ptr %15, i32 0, i32 3
  call void @llvm.memcpy.p0.p0.i64(ptr align 2 %5, ptr align 2 %3, i64 2, i1 false)
  %17 = getelementptr inbounds %"struct.pkpy::Type", ptr %5, i32 0, i32 0
  %18 = load i16, ptr %17, align 2
  %19 = call noundef zeroext i1 @_ZNK4pkpy4TypeeqES0_(ptr noundef nonnull align 2 dereferenceable(2) %16, i16 %18)
  br label %20

20:                                               ; preds = %14, %9
  %21 = phi i1 [ %13, %9 ], [ %19, %14 ]
  ret i1 %21
}

; Function Attrs: mustprogress uwtable
define internal noundef ptr @"_ZZN4pkpy15__init_builtinsEPNS_2VMEENK5$_135clES1_PNS_8PyObjectES4_"(ptr noundef nonnull align 1 dereferenceable(1) %0, ptr noundef %1, ptr noundef %2, ptr noundef %3) #4 align 2 {
  %5 = alloca ptr, align 8
  %6 = alloca ptr, align 8
  %7 = alloca ptr, align 8
  %8 = alloca ptr, align 8
  %9 = alloca ptr, align 8
  %10 = alloca %"struct.pkpy::Type", align 2
  %11 = alloca ptr, align 8
  %12 = alloca ptr, align 8
  %13 = alloca i32, align 4
  %14 = alloca i8, align 1
  %15 = alloca i8, align 1
  store ptr %0, ptr %6, align 8
  store ptr %1, ptr %7, align 8
  store ptr %2, ptr %8, align 8
  store ptr %3, ptr %9, align 8
  %16 = load ptr, ptr %9, align 8
  call void @llvm.memcpy.p0.p0.i64(ptr align 2 %10, ptr align 2 @_ZN4pkpy2VM8tp_tupleE, i64 2, i1 false)
  %17 = getelementptr inbounds %"struct.pkpy::Type", ptr %10, i32 0, i32 0
  %18 = load i16, ptr %17, align 2
  %19 = call noundef zeroext i1 @_ZN4pkpy7is_typeEPNS_8PyObjectENS_4TypeE(ptr noundef %16, i16 %18)
  br i1 %19, label %24, label %20

20:                                               ; preds = %4
  %21 = load ptr, ptr %7, align 8
  %22 = getelementptr inbounds %"class.pkpy::VM", ptr %21, i32 0, i32 12
  %23 = load ptr, ptr %22, align 8
  store ptr %23, ptr %5, align 8
  br label %81

24:                                               ; preds = %4
  %25 = load ptr, ptr %7, align 8
  %26 = load ptr, ptr %8, align 8
  %27 = call noundef nonnull align 8 dereferenceable(36) ptr @_ZN4pkpy8_py_castIRNS_5TupleEEET_PNS_2VMEPNS_8PyObjectE(ptr noundef %25, ptr noundef %26)
  store ptr %27, ptr %11, align 8
  %28 = load ptr, ptr %7, align 8
  %29 = load ptr, ptr %9, align 8
  %30 = call noundef nonnull align 8 dereferenceable(36) ptr @_ZN4pkpy8_py_castIRNS_5TupleEEET_PNS_2VMEPNS_8PyObjectE(ptr noundef %28, ptr noundef %29)
  store ptr %30, ptr %12, align 8
  store i32 0, ptr %13, align 4
  br label %31

31:                                               ; preds = %69, %24
  %32 = load i32, ptr %13, align 4
  %33 = load ptr, ptr %11, align 8
  %34 = call noundef i32 @_ZNK4pkpy5Tuple4sizeEv(ptr noundef nonnull align 8 dereferenceable(36) %33)
  %35 = icmp slt i32 %32, %34
  br i1 %35, label %36, label %41

36:                                               ; preds = %31
  %37 = load i32, ptr %13, align 4
  %38 = load ptr, ptr %12, align 8
  %39 = call noundef i32 @_ZNK4pkpy5Tuple4sizeEv(ptr noundef nonnull align 8 dereferenceable(36) %38)
  %40 = icmp slt i32 %37, %39
  br label %41

41:                                               ; preds = %36, %31
  %42 = phi i1 [ false, %31 ], [ %40, %36 ]
  br i1 %42, label %43, label %72

43:                                               ; preds = %41
  %44 = load ptr, ptr %7, align 8
  %45 = load ptr, ptr %11, align 8
  %46 = load i32, ptr %13, align 4
  %47 = call noundef nonnull align 8 dereferenceable(8) ptr @_ZN4pkpy5TupleixEi(ptr noundef nonnull align 8 dereferenceable(36) %45, i32 noundef %46)
  %48 = load ptr, ptr %47, align 8
  %49 = load ptr, ptr %12, align 8
  %50 = load i32, ptr %13, align 4
  %51 = call noundef nonnull align 8 dereferenceable(8) ptr @_ZN4pkpy5TupleixEi(ptr noundef nonnull align 8 dereferenceable(36) %49, i32 noundef %50)
  %52 = load ptr, ptr %51, align 8
  %53 = call noundef zeroext i1 @_ZN4pkpy2VM5py_eqEPNS_8PyObjectES2_(ptr noundef nonnull align 8 dereferenceable(264913) %44, ptr noundef %48, ptr noundef %52)
  br i1 %53, label %54, label %55

54:                                               ; preds = %43
  br label %69

55:                                               ; preds = %43
  %56 = load ptr, ptr %7, align 8
  %57 = load ptr, ptr %7, align 8
  %58 = load ptr, ptr %11, align 8
  %59 = load i32, ptr %13, align 4
  %60 = call noundef nonnull align 8 dereferenceable(8) ptr @_ZN4pkpy5TupleixEi(ptr noundef nonnull align 8 dereferenceable(36) %58, i32 noundef %59)
  %61 = load ptr, ptr %60, align 8
  %62 = load ptr, ptr %12, align 8
  %63 = load i32, ptr %13, align 4
  %64 = call noundef nonnull align 8 dereferenceable(8) ptr @_ZN4pkpy5TupleixEi(ptr noundef nonnull align 8 dereferenceable(36) %62, i32 noundef %63)
  %65 = load ptr, ptr %64, align 8
  %66 = call noundef zeroext i1 @_ZN4pkpy2VM5py_geEPNS_8PyObjectES2_(ptr noundef nonnull align 8 dereferenceable(264913) %57, ptr noundef %61, ptr noundef %65)
  %67 = zext i1 %66 to i8
  store i8 %67, ptr %14, align 1
  %68 = call noundef ptr @_ZN4pkpy6py_varIbEEPNS_8PyObjectEPNS_2VMEOT_(ptr noundef %56, ptr noundef nonnull align 1 dereferenceable(1) %14)
  store ptr %68, ptr %5, align 8
  br label %81

69:                                               ; preds = %54
  %70 = load i32, ptr %13, align 4
  %71 = add nsw i32 %70, 1
  store i32 %71, ptr %13, align 4
  br label %31, !llvm.loop !88

72:                                               ; preds = %41
  %73 = load ptr, ptr %7, align 8
  %74 = load ptr, ptr %11, align 8
  %75 = call noundef i32 @_ZNK4pkpy5Tuple4sizeEv(ptr noundef nonnull align 8 dereferenceable(36) %74)
  %76 = load ptr, ptr %12, align 8
  %77 = call noundef i32 @_ZNK4pkpy5Tuple4sizeEv(ptr noundef nonnull align 8 dereferenceable(36) %76)
  %78 = icmp sge i32 %75, %77
  %79 = zext i1 %78 to i8
  store i8 %79, ptr %15, align 1
  %80 = call noundef ptr @_ZN4pkpy6py_varIbEEPNS_8PyObjectEPNS_2VMEOT_(ptr noundef %73, ptr noundef nonnull align 1 dereferenceable(1) %15)
  store ptr %80, ptr %5, align 8
  br label %81

81:                                               ; preds = %72, %55, %20
  %82 = load ptr, ptr %5, align 8
  ret ptr %82
}

; Function Attrs: mustprogress uwtable
define internal noundef ptr @"_ZZN4pkpy15__init_builtinsEPNS_2VMEEN5$_1358__invokeES1_PNS_8PyObjectES4_"(ptr noundef %0, ptr noundef %1, ptr noundef %2) #4 align 2 {
  %4 = alloca ptr, align 8
  %5 = alloca ptr, align 8
  %6 = alloca ptr, align 8
  %7 = alloca %class.anon.325, align 1
  store ptr %0, ptr %4, align 8
  store ptr %1, ptr %5, align 8
  store ptr %2, ptr %6, align 8
  %8 = load ptr, ptr %4, align 8
  %9 = load ptr, ptr %5, align 8
  %10 = load ptr, ptr %6, align 8
  %11 = call noundef ptr @"_ZZN4pkpy15__init_builtinsEPNS_2VMEENK5$_135clES1_PNS_8PyObjectES4_"(ptr noundef nonnull align 1 dereferenceable(1) %7, ptr noundef %8, ptr noundef %9, ptr noundef %10)
  ret ptr %11
}