; Function Attrs: mustprogress uwtable
define internal noundef ptr @"_ZZN4pkpy15__init_builtinsEPNS_2VMEEN5$_1358__invokeES1_PNS_8PyObjectES4_"(ptr noundef %0, ptr nocapture noundef readonly %1, ptr noundef %2) #4 align 2 {
  %4 = ptrtoint ptr %2 to i64
  %5 = and i64 %4, 3
  %6 = icmp eq i64 %5, 2
  br i1 %6, label %"_ZZN4pkpy15__init_builtinsEPNS_2VMEENK5$_135clES1_PNS_8PyObjectES4_.exit", label %_ZN4pkpy7is_typeEPNS_8PyObjectENS_4TypeE.exit.i

_ZN4pkpy7is_typeEPNS_8PyObjectENS_4TypeE.exit.i:  ; preds = %3
  %7 = getelementptr inbounds i8, ptr %2, i64 10
  %8 = load i16, ptr %7, align 2
  %9 = icmp eq i16 %8, 7
  br i1 %9, label %10, label %"_ZZN4pkpy15__init_builtinsEPNS_2VMEENK5$_135clES1_PNS_8PyObjectES4_.exit"

10:                                               ; preds = %_ZN4pkpy7is_typeEPNS_8PyObjectENS_4TypeE.exit.i
  %11 = getelementptr inbounds i8, ptr %1, i64 24
  %12 = getelementptr inbounds i8, ptr %2, i64 24
  %13 = getelementptr inbounds i8, ptr %1, i64 56
  %14 = load i32, ptr %13, align 8
  %15 = icmp sgt i32 %14, 0
  br i1 %15, label %.lr.ph.i, label %.critedge.i

.lr.ph.i:                                         ; preds = %10
  %16 = getelementptr inbounds i8, ptr %2, i64 56
  %17 = load i32, ptr %16, align 8
  %18 = icmp sgt i32 %17, 0
  br i1 %18, label %.lr.ph, label %.critedge.i

19:                                               ; preds = %.lr.ph
  %indvars.iv.next.i = add nuw nsw i64 %indvars.iv.i4, 1
  %20 = load i32, ptr %13, align 8
  %21 = sext i32 %20 to i64
  %22 = icmp slt i64 %indvars.iv.next.i, %21
  br i1 %22, label %23, label %.critedge.i, !llvm.loop !164

23:                                               ; preds = %19
  %24 = load i32, ptr %16, align 8
  %25 = sext i32 %24 to i64
  %26 = icmp slt i64 %indvars.iv.next.i, %25
  br i1 %26, label %.lr.ph, label %.critedge.i, !llvm.loop !164

.lr.ph:                                           ; preds = %.lr.ph.i, %23
  %indvars.iv.i4 = phi i64 [ %indvars.iv.next.i, %23 ], [ 0, %.lr.ph.i ]
  %27 = load ptr, ptr %11, align 8
  %28 = getelementptr inbounds ptr, ptr %27, i64 %indvars.iv.i4
  %29 = load ptr, ptr %28, align 8
  %30 = load ptr, ptr %12, align 8
  %31 = getelementptr inbounds ptr, ptr %30, i64 %indvars.iv.i4
  %32 = load ptr, ptr %31, align 8
  %33 = tail call noundef zeroext i1 @_ZN4pkpy2VM5py_eqEPNS_8PyObjectES2_(ptr noundef nonnull align 8 dereferenceable(264913) %0, ptr noundef %29, ptr noundef %32)
  br i1 %33, label %19, label %34

34:                                               ; preds = %.lr.ph
  %35 = load ptr, ptr %11, align 8
  %36 = getelementptr inbounds ptr, ptr %35, i64 %indvars.iv.i4
  %37 = load ptr, ptr %36, align 8
  %38 = load ptr, ptr %12, align 8
  %39 = getelementptr inbounds ptr, ptr %38, i64 %indvars.iv.i4
  %40 = load ptr, ptr %39, align 8
  %41 = tail call noundef zeroext i1 @_ZN4pkpy2VM5py_geEPNS_8PyObjectES2_(ptr noundef nonnull align 8 dereferenceable(264913) %0, ptr noundef %37, ptr noundef %40)
  %.in.v.i.i = select i1 %41, i64 264528, i64 264536
  br label %"_ZZN4pkpy15__init_builtinsEPNS_2VMEENK5$_135clES1_PNS_8PyObjectES4_.exit"

.critedge.i:                                      ; preds = %19, %23, %.lr.ph.i, %10
  %.lcssa.i = phi i32 [ %14, %10 ], [ %14, %.lr.ph.i ], [ %20, %23 ], [ %20, %19 ]
  %42 = getelementptr inbounds i8, ptr %2, i64 56
  %43 = load i32, ptr %42, align 8
  %.not.i = icmp slt i32 %.lcssa.i, %43
  %.in.v.i26.i = select i1 %.not.i, i64 264536, i64 264528
  br label %"_ZZN4pkpy15__init_builtinsEPNS_2VMEENK5$_135clES1_PNS_8PyObjectES4_.exit"

"_ZZN4pkpy15__init_builtinsEPNS_2VMEENK5$_135clES1_PNS_8PyObjectES4_.exit": ; preds = %3, %_ZN4pkpy7is_typeEPNS_8PyObjectENS_4TypeE.exit.i, %34, %.critedge.i
  %.in.v.i26.sink.i = phi i64 [ %.in.v.i26.i, %.critedge.i ], [ %.in.v.i.i, %34 ], [ 264544, %3 ], [ 264544, %_ZN4pkpy7is_typeEPNS_8PyObjectENS_4TypeE.exit.i ]
  %.in.i27.i = getelementptr inbounds i8, ptr %0, i64 %.in.v.i26.sink.i
  %.025.i = load ptr, ptr %.in.i27.i, align 8
  ret ptr %.025.i
}